target datalayout = "e-m:e-p270:32:32-p271:32:32-p272:64:64-i64:64-i128:128-f80:128-n8:16:32:64-S128"
target triple = "x86_64-pc-linux-gnu"

%struct.jpeg_compress_struct = type { ptr, ptr, ptr, ptr, i32, i32, ptr, i32, i32, i32, i32, double, i32, i32, i32, ptr, [4 x ptr], [4 x ptr], [4 x ptr], [16 x i8], [16 x i8], [16 x i8], i32, ptr, i32, i32, i32, i32, i32, i32, i32, i32, i32, i8, i8, i8, i16, i16, i32, i32, i32, i32, i32, i32, i32, [4 x ptr], i32, i32, i32, [10 x i32], i32, i32, i32, i32, ptr, ptr, ptr, ptr, ptr, ptr, ptr, ptr, ptr, ptr, i32 }
%struct.jpeg_error_mgr = type { ptr, ptr, ptr, ptr, ptr, i32, %union.anon, i32, i64, ptr, i32, ptr, i32, i32 }
%union.anon = type { [8 x i32], [48 x i8] }
%struct.jpeg_memory_mgr = type { ptr, ptr, ptr, ptr, ptr, ptr, ptr, ptr, ptr, ptr, ptr, i64, i64 }
%struct._bmp_source_struct = type { %struct.cjpeg_source_struct, ptr, ptr, ptr, i32, i32, i32, i32, i32, ptr }
%struct.cjpeg_source_struct = type { ptr, ptr, ptr, ptr, ptr, ptr, ptr, i32, i32 }

; Function Attrs: nounwind uwtable
define dso_local ptr @jinit_read_bmp(ptr noundef %0, i32 noundef %1) #0 {
  %3 = alloca ptr, align 8
  %4 = alloca i32, align 4
  %5 = alloca ptr, align 8
  store ptr %0, ptr %3, align 8, !tbaa !4
  store i32 %1, ptr %4, align 4, !tbaa !9
  call void @llvm.lifetime.start.p0(i64 8, ptr %5) #7
  %6 = load ptr, ptr %3, align 8, !tbaa !4
  %7 = getelementptr inbounds nuw %struct.jpeg_compress_struct, ptr %6, i32 0, i32 12
  %8 = load i32, ptr %7, align 8, !tbaa !11
  %9 = icmp ne i32 %8, 8
  br i1 %9, label %10, label %29

10:                                               ; preds = %2
  %11 = load ptr, ptr %3, align 8, !tbaa !4
  %12 = getelementptr inbounds nuw %struct.jpeg_compress_struct, ptr %11, i32 0, i32 0
  %13 = load ptr, ptr %12, align 8, !tbaa !28
  %14 = getelementptr inbounds nuw %struct.jpeg_error_mgr, ptr %13, i32 0, i32 5
  store i32 15, ptr %14, align 8, !tbaa !29
  %15 = load ptr, ptr %3, align 8, !tbaa !4
  %16 = getelementptr inbounds nuw %struct.jpeg_compress_struct, ptr %15, i32 0, i32 12
  %17 = load i32, ptr %16, align 8, !tbaa !11
  %18 = load ptr, ptr %3, align 8, !tbaa !4
  %19 = getelementptr inbounds nuw %struct.jpeg_compress_struct, ptr %18, i32 0, i32 0
  %20 = load ptr, ptr %19, align 8, !tbaa !28
  %21 = getelementptr inbounds nuw %struct.jpeg_error_mgr, ptr %20, i32 0, i32 6
  %22 = getelementptr inbounds [8 x i32], ptr %21, i64 0, i64 0
  store i32 %17, ptr %22, align 4, !tbaa !33
  %23 = load ptr, ptr %3, align 8, !tbaa !4
  %24 = getelementptr inbounds nuw %struct.jpeg_compress_struct, ptr %23, i32 0, i32 0
  %25 = load ptr, ptr %24, align 8, !tbaa !28
  %26 = getelementptr inbounds nuw %struct.jpeg_error_mgr, ptr %25, i32 0, i32 0
  %27 = load ptr, ptr %26, align 8, !tbaa !34
  %28 = load ptr, ptr %3, align 8, !tbaa !4
  call void %27(ptr noundef %28)
  br label %29

29:                                               ; preds = %10, %2
  %30 = load ptr, ptr %3, align 8, !tbaa !4
  %31 = getelementptr inbounds nuw %struct.jpeg_compress_struct, ptr %30, i32 0, i32 1
  %32 = load ptr, ptr %31, align 8, !tbaa !35
  %33 = getelementptr inbounds nuw %struct.jpeg_memory_mgr, ptr %32, i32 0, i32 0
  %34 = load ptr, ptr %33, align 8, !tbaa !36
  %35 = load ptr, ptr %3, align 8, !tbaa !4
  %36 = call ptr %34(ptr noundef %35, i32 noundef 1, i64 noundef 120)
  store ptr %36, ptr %5, align 8, !tbaa !38
  %37 = load ptr, ptr %3, align 8, !tbaa !4
  %38 = load ptr, ptr %5, align 8, !tbaa !38
  %39 = getelementptr inbounds nuw %struct._bmp_source_struct, ptr %38, i32 0, i32 1
  store ptr %37, ptr %39, align 8, !tbaa !40
  %40 = load ptr, ptr %5, align 8, !tbaa !38
  %41 = getelementptr inbounds nuw %struct._bmp_source_struct, ptr %40, i32 0, i32 0
  %42 = getelementptr inbounds nuw %struct.cjpeg_source_struct, ptr %41, i32 0, i32 0
  store ptr @start_input_bmp, ptr %42, align 8, !tbaa !47
  %43 = load ptr, ptr %5, align 8, !tbaa !38
  %44 = getelementptr inbounds nuw %struct._bmp_source_struct, ptr %43, i32 0, i32 0
  %45 = getelementptr inbounds nuw %struct.cjpeg_source_struct, ptr %44, i32 0, i32 2
  store ptr @finish_input_bmp, ptr %45, align 8, !tbaa !48
  %46 = load ptr, ptr %5, align 8, !tbaa !38
  %47 = getelementptr inbounds nuw %struct._bmp_source_struct, ptr %46, i32 0, i32 0
  %48 = getelementptr inbounds nuw %struct.cjpeg_source_struct, ptr %47, i32 0, i32 8
  store i32 0, ptr %48, align 4, !tbaa !49
  %49 = load i32, ptr %4, align 4, !tbaa !9
  %50 = load ptr, ptr %5, align 8, !tbaa !38
  %51 = getelementptr inbounds nuw %struct._bmp_source_struct, ptr %50, i32 0, i32 8
  store i32 %49, ptr %51, align 8, !tbaa !50
  %52 = load ptr, ptr %5, align 8, !tbaa !38
  call void @llvm.lifetime.end.p0(i64 8, ptr %5) #7
  ret ptr %52
}