; Function Attrs: nounwind uwtable
define dso_local noundef ptr @jinit_read_bmp(ptr noundef %0, i32 noundef %1) local_unnamed_addr #0 {
  %3 = getelementptr inbounds nuw i8, ptr %0, i64 72
  %4 = load i32, ptr %3, align 8, !tbaa !4
  %.not = icmp eq i32 %4, 8
  br i1 %.not, label %11, label %5

5:                                                ; preds = %2
  %6 = load ptr, ptr %0, align 8, !tbaa !25
  %7 = getelementptr inbounds nuw i8, ptr %6, i64 40
  store i32 15, ptr %7, align 8, !tbaa !26
  %8 = getelementptr inbounds nuw i8, ptr %6, i64 44
  store i32 %4, ptr %8, align 4, !tbaa !30
  %9 = load ptr, ptr %0, align 8, !tbaa !25
  %10 = load ptr, ptr %9, align 8, !tbaa !31
  tail call void %10(ptr noundef nonnull %0) #6
  br label %11

11:                                               ; preds = %5, %2
  %12 = getelementptr inbounds nuw i8, ptr %0, i64 8
  %13 = load ptr, ptr %12, align 8, !tbaa !32
  %14 = load ptr, ptr %13, align 8, !tbaa !33
  %15 = tail call ptr %14(ptr noundef nonnull %0, i32 noundef 1, i64 noundef 120) #6
  %16 = getelementptr inbounds nuw i8, ptr %15, i64 64
  store ptr %0, ptr %16, align 8, !tbaa !35
  store ptr @start_input_bmp, ptr %15, align 8, !tbaa !43
  %17 = getelementptr inbounds nuw i8, ptr %15, i64 16
  store ptr @finish_input_bmp, ptr %17, align 8, !tbaa !44
  %18 = getelementptr inbounds nuw i8, ptr %15, i64 60
  store i32 0, ptr %18, align 4, !tbaa !45
  %19 = getelementptr inbounds nuw i8, ptr %15, i64 104
  store i32 %1, ptr %19, align 8, !tbaa !46
  ret ptr %15
}